target datalayout = "e-m:e-p270:32:32-p271:32:32-p272:64:64-i64:64-i128:128-f80:128-n8:16:32:64-S128"
target triple = "x86_64-unknown-linux-gnu"

@stderr = external global ptr, align 8

; Function Attrs: mustprogress nounwind uwtable
define internal void @_ZN4nodeL5AbortERKN2v820FunctionCallbackInfoINS0_5ValueEEE(ptr noundef nonnull align 8 dereferenceable(20) %args) #4 {
entry:
  %args.addr = alloca ptr, align 8
  store ptr %args, ptr %args.addr, align 8
  br label %do.body

do.body:                                          ; preds = %entry
  %0 = load ptr, ptr @stderr, align 8
  call void @_ZN4node19DumpNativeBacktraceEP8_IO_FILE(ptr noundef %0)
  %1 = load ptr, ptr @stderr, align 8
  call void @_ZN4node23DumpJavaScriptBacktraceEP8_IO_FILE(ptr noundef %1)
  %2 = load ptr, ptr @stderr, align 8
  %call = call i32 @fflush(ptr noundef %2)
  call void @abort() #16
  unreachable

do.end:                                           ; No predecessors!
  ret void
}