; Function Attrs: mustprogress noreturn nounwind uwtable
define internal void @_ZN4nodeL5AbortERKN2v820FunctionCallbackInfoINS0_5ValueEEE(ptr nocapture nonnull readnone align 8 %args) #8 {
entry:
  %0 = load ptr, ptr @stderr, align 8
  tail call void @_ZN4node19DumpNativeBacktraceEP8_IO_FILE(ptr noundef %0) #25
  %1 = load ptr, ptr @stderr, align 8
  tail call void @_ZN4node23DumpJavaScriptBacktraceEP8_IO_FILE(ptr noundef %1) #25
  %2 = load ptr, ptr @stderr, align 8
  %call = tail call i32 @fflush(ptr noundef %2)
  tail call void @abort() #26
  unreachable
}